; Function Attrs: nounwind uwtable
define zeroext i8 @l___private_Lake_Util_Version_0__Lake_decEqToolchainVer____x40_Lake_Util_Version___hyg_1749_(ptr noundef %0, ptr noundef %1) local_unnamed_addr #0 {
  %3 = ptrtoint ptr %0 to i64
  %4 = and i64 %3, 1
  %.not.i = icmp eq i64 %4, 0
  br i1 %.not.i, label %8, label %5

5:                                                ; preds = %2
  %6 = lshr i64 %3, 1
  %7 = trunc i64 %6 to i32
  br label %lean_obj_tag.exit

8:                                                ; preds = %2
  %9 = getelementptr i8, ptr %0, i64 4
  %.val.i = load i32, ptr %9, align 4
  %10 = lshr i32 %.val.i, 24
  br label %lean_obj_tag.exit

lean_obj_tag.exit:                                ; preds = %5, %8
  %.0.i29 = phi i32 [ %7, %5 ], [ %10, %8 ]
  %11 = ptrtoint ptr %1 to i64
  %12 = and i64 %11, 1
  %.not.i42 = icmp eq i64 %12, 0
  switch i32 %.0.i29, label %64 [
    i32 0, label %13
    i32 1, label %27
    i32 2, label %41
  ]

13:                                               ; preds = %lean_obj_tag.exit
  br i1 %.not.i42, label %17, label %14

14:                                               ; preds = %13
  %15 = lshr i64 %11, 1
  %16 = trunc i64 %15 to i32
  br label %lean_obj_tag.exit33

17:                                               ; preds = %13
  %18 = getelementptr i8, ptr %1, i64 4
  %.val.i32 = load i32, ptr %18, align 4
  %19 = lshr i32 %.val.i32, 24
  br label %lean_obj_tag.exit33

lean_obj_tag.exit33:                              ; preds = %14, %17
  %.0.i31 = phi i32 [ %16, %14 ], [ %19, %17 ]
  %20 = icmp eq i32 %.0.i31, 0
  br i1 %20, label %21, label %lean_string_dec_eq.exit

21:                                               ; preds = %lean_obj_tag.exit33
  %22 = getelementptr inbounds nuw i8, ptr %0, i64 8
  %23 = load ptr, ptr %22, align 8, !tbaa !4
  %24 = getelementptr inbounds nuw i8, ptr %1, i64 8
  %25 = load ptr, ptr %24, align 8, !tbaa !4
  %26 = tail call zeroext i8 @l___private_Lake_Util_Version_0__Lake_decEqStdVer____x40_Lake_Util_Version___hyg_1011_(ptr noundef %23, ptr noundef %25)
  br label %lean_string_dec_eq.exit

27:                                               ; preds = %lean_obj_tag.exit
  br i1 %.not.i42, label %31, label %28

28:                                               ; preds = %27
  %29 = lshr i64 %11, 1
  %30 = trunc i64 %29 to i32
  br label %lean_obj_tag.exit37

31:                                               ; preds = %27
  %32 = getelementptr i8, ptr %1, i64 4
  %.val.i36 = load i32, ptr %32, align 4
  %33 = lshr i32 %.val.i36, 24
  br label %lean_obj_tag.exit37

lean_obj_tag.exit37:                              ; preds = %28, %31
  %.0.i35 = phi i32 [ %30, %28 ], [ %33, %31 ]
  %34 = icmp eq i32 %.0.i35, 1
  br i1 %34, label %35, label %lean_string_dec_eq.exit

35:                                               ; preds = %lean_obj_tag.exit37
  %36 = getelementptr inbounds nuw i8, ptr %0, i64 8
  %37 = load ptr, ptr %36, align 8, !tbaa !4
  %38 = getelementptr inbounds nuw i8, ptr %1, i64 8
  %39 = load ptr, ptr %38, align 8, !tbaa !4
  %40 = tail call zeroext i8 @l___private_Lake_Util_Date_0__Lake_decEqDate____x40_Lake_Util_Date___hyg_91_(ptr noundef %37, ptr noundef %39) #5
  br label %lean_string_dec_eq.exit

41:                                               ; preds = %lean_obj_tag.exit
  br i1 %.not.i42, label %45, label %42

42:                                               ; preds = %41
  %43 = lshr i64 %11, 1
  %44 = trunc i64 %43 to i32
  br label %lean_obj_tag.exit41

45:                                               ; preds = %41
  %46 = getelementptr i8, ptr %1, i64 4
  %.val.i40 = load i32, ptr %46, align 4
  %47 = lshr i32 %.val.i40, 24
  br label %lean_obj_tag.exit41

lean_obj_tag.exit41:                              ; preds = %42, %45
  %.0.i39 = phi i32 [ %44, %42 ], [ %47, %45 ]
  %48 = icmp eq i32 %.0.i39, 2
  br i1 %48, label %49, label %lean_string_dec_eq.exit

49:                                               ; preds = %lean_obj_tag.exit41
  %50 = getelementptr inbounds nuw i8, ptr %0, i64 8
  %51 = load ptr, ptr %50, align 8, !tbaa !4
  %52 = getelementptr inbounds nuw i8, ptr %1, i64 8
  %53 = load ptr, ptr %52, align 8, !tbaa !4
  %54 = ptrtoint ptr %51 to i64
  %55 = and i64 %54, 1
  %56 = icmp ne i64 %55, 0
  %57 = ptrtoint ptr %53 to i64
  %58 = and i64 %57, 1
  %59 = icmp ne i64 %58, 0
  %or.cond = select i1 %56, i1 %59, i1 false
  br i1 %or.cond, label %60, label %.critedge.i, !prof !14

60:                                               ; preds = %49
  %61 = icmp eq ptr %51, %53
  br label %lean_nat_eq.exit

.critedge.i:                                      ; preds = %49
  %62 = tail call zeroext i1 @lean_nat_big_eq(ptr noundef %51, ptr noundef %53) #5
  br label %lean_nat_eq.exit

lean_nat_eq.exit:                                 ; preds = %60, %.critedge.i
  %.0.i = phi i1 [ %61, %60 ], [ %62, %.critedge.i ]
  %63 = zext i1 %.0.i to i8
  br label %lean_string_dec_eq.exit

64:                                               ; preds = %lean_obj_tag.exit
  br i1 %.not.i42, label %68, label %65

65:                                               ; preds = %64
  %66 = lshr i64 %11, 1
  %67 = trunc i64 %66 to i32
  br label %lean_obj_tag.exit45

68:                                               ; preds = %64
  %69 = getelementptr i8, ptr %1, i64 4
  %.val.i44 = load i32, ptr %69, align 4
  %70 = lshr i32 %.val.i44, 24
  br label %lean_obj_tag.exit45

lean_obj_tag.exit45:                              ; preds = %65, %68
  %.0.i43 = phi i32 [ %67, %65 ], [ %70, %68 ]
  %71 = icmp eq i32 %.0.i43, 3
  br i1 %71, label %72, label %lean_string_dec_eq.exit

72:                                               ; preds = %lean_obj_tag.exit45
  %73 = getelementptr inbounds nuw i8, ptr %0, i64 8
  %74 = load ptr, ptr %73, align 8, !tbaa !4
  %75 = getelementptr inbounds nuw i8, ptr %1, i64 8
  %76 = load ptr, ptr %75, align 8, !tbaa !4
  %77 = icmp eq ptr %74, %76
  br i1 %77, label %lean_string_dec_eq.exit, label %78

78:                                               ; preds = %72
  %79 = getelementptr i8, ptr %74, i64 8
  %.val.i.i = load i64, ptr %79, align 8, !tbaa !12
  %80 = getelementptr i8, ptr %76, i64 8
  %.val7.i.i = load i64, ptr %80, align 8, !tbaa !12
  %81 = icmp eq i64 %.val.i.i, %.val7.i.i
  br i1 %81, label %82, label %lean_string_dec_eq.exit

82:                                               ; preds = %78
  %83 = tail call zeroext i1 @lean_string_eq_cold(ptr noundef nonnull %74, ptr noundef nonnull %76) #5
  %84 = zext i1 %83 to i8
  br label %lean_string_dec_eq.exit

lean_string_dec_eq.exit:                          ; preds = %82, %78, %72, %lean_obj_tag.exit45, %lean_obj_tag.exit41, %lean_obj_tag.exit37, %lean_obj_tag.exit33, %lean_nat_eq.exit, %35, %21
  %.0 = phi i8 [ %63, %lean_nat_eq.exit ], [ %40, %35 ], [ %26, %21 ], [ 0, %lean_obj_tag.exit33 ], [ 0, %lean_obj_tag.exit37 ], [ 0, %lean_obj_tag.exit41 ], [ 0, %lean_obj_tag.exit45 ], [ 1, %72 ], [ 0, %78 ], [ %84, %82 ]
  ret i8 %.0
}